Certificate:
    Data:
        Version: 3 (0x2)
        Serial Number:
            ec:ec:eb:3a:7b:1f:61:27:96:4b:b6:13:41:0e:3c:de
        Signature Algorithm: sha256WithRSAEncryption
        Issuer: CN=naijalink
        Validity
            Not Before: Mar  7 14:58:53 2025 GMT
            Not After : Jun 10 14:58:53 2027 GMT
        Subject: CN=router1
        Subject Public Key Info:
            Public Key Algorithm: rsaEncryption
                Public-Key: (2048 bit)
                Modulus:
                    00:e5:24:fb:ca:a9:78:3d:61:65:cc:b7:4e:35:8b:
                    12:57:18:47:9b:ca:44:4f:20:93:7e:7a:aa:9b:ee:
                    21:5a:78:29:e9:3f:57:31:bb:52:b3:b8:10:9d:38:
                    7e:12:d2:92:a8:c1:7e:fa:4b:db:15:9a:20:1e:25:
                    1d:38:73:ab:40:62:b8:63:a3:03:e9:b7:be:b3:18:
                    df:49:02:aa:ca:a3:5c:82:9d:e8:3f:d1:4e:47:40:
                    ff:eb:6a:17:da:5d:5a:3c:33:85:2c:5e:69:ea:c3:
                    54:6c:23:c4:2e:a4:ab:9e:af:92:44:cc:5f:5d:4f:
                    7d:cd:07:2d:78:5c:df:cc:7f:4c:45:43:45:01:ba:
                    fc:1a:65:2c:3c:49:ce:2c:6e:c2:b5:c9:a6:72:47:
                    61:83:29:c1:63:13:40:f7:60:c9:a7:f1:ab:85:b5:
                    86:cf:a3:23:05:66:fe:4b:27:c6:2a:12:8b:5f:de:
                    af:f6:a7:cf:7f:42:a3:ef:80:4d:ef:46:e5:3c:cb:
                    ef:cc:1d:fb:a3:4b:d0:36:28:5e:a5:80:f4:f2:e8:
                    f3:2a:98:f8:c6:65:71:49:aa:4f:7c:25:94:c6:2d:
                    09:c1:ff:c0:d1:ac:a5:5a:89:89:8b:e3:ab:b3:ab:
                    3a:68:58:b6:73:a1:18:3e:e9:84:9d:31:34:b4:eb:
                    3f:d9
                Exponent: 65537 (0x10001)
        X509v3 extensions:
            X509v3 Basic Constraints: 
                CA:FALSE
            X509v3 Subject Key Identifier: 
                38:5E:AE:93:7D:30:08:38:94:51:B6:1E:57:87:7B:25:2F:CC:90:A1
            X509v3 Authority Key Identifier: 
                keyid:2A:72:CF:57:F3:6A:62:FC:34:C8:0F:30:53:EA:84:59:09:DF:FC:7F
                DirName:/CN=naijalink
                serial:53:A1:37:2D:F8:EB:60:11:BB:20:47:36:9A:E7:4E:05:51:C1:60:AB
            X509v3 Extended Key Usage: 
                TLS Web Client Authentication
            X509v3 Key Usage: 
                Digital Signature
    Signature Algorithm: sha256WithRSAEncryption
    Signature Value:
        b6:cc:ca:08:9b:4a:c2:5f:9f:27:62:68:24:86:e2:b8:b7:60:
        de:55:95:a6:39:57:68:0c:a9:59:d1:81:a7:b1:75:0a:f4:15:
        51:76:b0:63:c4:29:9f:8c:b2:39:f8:ab:dc:86:ac:18:f6:26:
        0b:b6:2b:8f:b7:64:43:fe:cd:c6:0b:92:50:5a:8c:c2:4c:75:
        fc:a1:9d:a6:76:10:66:f0:b4:3a:ea:ed:e8:7b:ea:1e:30:11:
        10:ee:3d:f4:0c:15:c2:a5:d5:86:51:4f:67:21:a1:7e:cf:4c:
        7e:a9:e3:0e:39:0f:4d:58:cd:ca:4a:0c:b0:92:cf:64:28:fa:
        1c:f3:c8:1d:fd:32:db:43:d2:11:13:01:96:3c:b7:4c:24:41:
        98:91:3d:1b:01:59:32:79:6c:4d:31:05:38:15:24:bf:51:53:
        0b:e3:f3:29:dd:19:35:0f:17:2b:4d:e3:63:2d:c3:d4:4b:c4:
        8a:17:ee:59:61:c2:dd:d6:2c:db:2c:a1:8d:42:95:3d:9a:ef:
        69:3b:ea:0a:2f:27:90:be:6d:27:5a:72:c7:4d:c3:54:76:57:
        d0:f3:92:6b:38:d9:0c:62:45:5b:c5:75:c0:0c:98:9a:ab:ef:
        4f:53:ef:ef:3f:49:e0:6b:03:9e:9e:c7:2f:b4:2a:82:44:c0:
        11:6d:25:6c
-----BEGIN CERTIFICATE-----
MIIDUjCCAjqgAwIBAgIRAOzs6zp7H2Enlku2E0EOPN4wDQYJKoZIhvcNAQELBQAw
FDESMBAGA1UEAwwJbmFpamFsaW5rMB4XDTI1MDMwNzE0NTg1M1oXDTI3MDYxMDE0
NTg1M1owEjEQMA4GA1UEAwwHcm91dGVyMTCCASIwDQYJKoZIhvcNAQEBBQADggEP
ADCCAQoCggEBAOUk+8qpeD1hZcy3TjWLElcYR5vKRE8gk356qpvuIVp4Kek/VzG7
UrO4EJ04fhLSkqjBfvpL2xWaIB4lHThzq0BiuGOjA+m3vrMY30kCqsqjXIKd6D/R
TkdA/+tqF9pdWjwzhSxeaerDVGwjxC6kq56vkkTMX11Pfc0HLXhc38x/TEVDRQG6
/BplLDxJzixuwrXJpnJHYYMpwWMTQPdgyafxq4W1hs+jIwVm/ksnxioSi1/er/an
z39Co++ATe9G5TzL78wd+6NL0DYoXqWA9PLo8yqY+MZlcUmqT3wllMYtCcH/wNGs
pVqJiYvjq7OrOmhYtnOhGD7phJ0xNLTrP9kCAwEAAaOBoDCBnTAJBgNVHRMEAjAA
MB0GA1UdDgQWBBQ4Xq6TfTAIOJRRth5Xh3slL8yQoTBPBgNVHSMESDBGgBQqcs9X
82pi/DTIDzBT6oRZCd/8f6EYpBYwFDESMBAGA1UEAwwJbmFpamFsaW5rghRToTct
+OtgEbsgRzaa504FUcFgqzATBgNVHSUEDDAKBggrBgEFBQcDAjALBgNVHQ8EBAMC
B4AwDQYJKoZIhvcNAQELBQADggEBALbMygibSsJfnydiaCSG4ri3YN5VlaY5V2gM
qVnRgaexdQr0FVF2sGPEKZ+Msjn4q9yGrBj2Jgu2K4+3ZEP+zcYLklBajMJMdfyh
naZ2EGbwtDrq7eh76h4wERDuPfQMFcKl1YZRT2choX7PTH6p4w45D01YzcpKDLCS
z2Qo+hzzyB39MttD0hETAZY8t0wkQZiRPRsBWTJ5bE0xBTgVJL9RUwvj8yndGTUP
FytN42Mtw9RLxIoX7llhwt3WLNssoY1ClT2a72k76govJ5C+bSdacsdNw1R2V9Dz
kms42QxiRVvFdcAMmJqr709T7+8/SeBrA56exy+0KoJEwBFtJWw=
-----END CERTIFICATE-----
